target datalayout = "e-m:e-p270:32:32-p271:32:32-p272:64:64-i64:64-i128:128-f80:128-n8:16:32:64-S128"
target triple = "x86_64-unknown-linux-gnu"

; Function Attrs: mustprogress uwtable
define noundef zeroext i1 @_ZN7rocksdb13InternalStats27HandleBlockCachePinnedUsageEPmPNS_6DBImplEPNS_7VersionE(ptr noundef nonnull align 8 dereferenceable(1944) %this, ptr noundef %value, ptr noundef %0, ptr noundef %1) #0 align 2 {
entry:
  %retval = alloca i1, align 1
  %this.addr = alloca ptr, align 8
  %value.addr = alloca ptr, align 8
  %.addr = alloca ptr, align 8
  %.addr1 = alloca ptr, align 8
  %block_cache = alloca ptr, align 8
  store ptr %this, ptr %this.addr, align 8
  store ptr %value, ptr %value.addr, align 8
  store ptr %0, ptr %.addr, align 8
  store ptr %1, ptr %.addr1, align 8
  %this2 = load ptr, ptr %this.addr, align 8
  %call = call noundef ptr @_ZN7rocksdb13InternalStats21GetBlockCacheForStatsEv(ptr noundef nonnull align 8 dereferenceable(1944) %this2)
  store ptr %call, ptr %block_cache, align 8
  %2 = load ptr, ptr %block_cache, align 8
  %tobool = icmp ne ptr %2, null
  br i1 %tobool, label %if.then, label %if.end

if.then:                                          ; preds = %entry
  %3 = load ptr, ptr %block_cache, align 8
  %vtable = load ptr, ptr %3, align 8
  %vfn = getelementptr inbounds ptr, ptr %vtable, i64 19
  %4 = load ptr, ptr %vfn, align 8
  %call3 = call noundef i64 %4(ptr noundef nonnull align 8 dereferenceable(56) %3)
  %5 = load ptr, ptr %value.addr, align 8
  store i64 %call3, ptr %5, align 8
  store i1 true, ptr %retval, align 1
  br label %return

if.end:                                           ; preds = %entry
  store i1 false, ptr %retval, align 1
  br label %return

return:                                           ; preds = %if.end, %if.then
  %6 = load i1, ptr %retval, align 1
  ret i1 %6
}